target datalayout = "e-m:e-p270:32:32-p271:32:32-p272:64:64-i64:64-i128:128-f80:128-n8:16:32:64-S128"
target triple = "x86_64-pc-linux-gnu"

%struct._zend_phar_globals = type { %struct._zend_array, %struct._zend_array, ptr, %struct._zend_array, i32, i32, ptr, i32, i32, i32, i32, i8, i8, i8, i32, i32, i32, i32, ptr, ptr, ptr, ptr, ptr, ptr, ptr, ptr, ptr, ptr, ptr, ptr, ptr, ptr, ptr, ptr, ptr, ptr, ptr, ptr, ptr, ptr, ptr, i32, i32, ptr, i32, ptr, i32, ptr, i32, ptr, %struct._zend_array }
%struct._zend_array = type { %struct._zend_refcounted_h, %union.anon.0, i32, %union.anon.1, i32, i32, i32, i32, i64, ptr }
%struct._zend_refcounted_h = type { i32, %union.anon }
%union.anon = type { i32 }
%union.anon.0 = type { i32 }
%union.anon.1 = type { ptr }
%struct._php_stream_statbuf = type { %struct.stat }
%struct.stat = type { i64, i64, i64, i32, i32, i32, i32, i64, i64, i64, i64, %struct.timespec, %struct.timespec, %struct.timespec, [3 x i64] }
%struct.timespec = type { i64, i64 }

@phar_globals = hidden global %struct._zend_phar_globals zeroinitializer, align 8
@cached_phars = hidden global %struct._zend_array zeroinitializer, align 8

; Function Attrs: nounwind uwtable
define internal i32 @phar_analyze_path(ptr noundef %0, ptr noundef %1, i64 noundef %2, i32 noundef %3) #0 {
  %5 = alloca ptr, align 8
  %6 = alloca ptr, align 8
  %7 = alloca i64, align 8
  %8 = alloca ptr, align 8
  %9 = alloca ptr, align 8
  %10 = alloca i64, align 8
  %11 = alloca i32, align 4
  %12 = alloca ptr, align 8
  %13 = alloca ptr, align 8
  %14 = alloca i64, align 8
  %15 = alloca i32, align 4
  %16 = alloca %struct._php_stream_statbuf, align 8
  %17 = alloca ptr, align 8
  %18 = alloca ptr, align 8
  %19 = alloca ptr, align 8
  store ptr %0, ptr %12, align 8
  store ptr %1, ptr %13, align 8
  store i64 %2, ptr %14, align 8
  store i32 %3, ptr %15, align 4
  %20 = load ptr, ptr %12, align 8
  %21 = load ptr, ptr %13, align 8
  %22 = load ptr, ptr %12, align 8
  %23 = ptrtoint ptr %21 to i64
  %24 = ptrtoint ptr %22 to i64
  %25 = sub i64 %23, %24
  %26 = load i64, ptr %14, align 8
  %27 = add i64 %25, %26
  %28 = call noalias ptr @_estrndup(ptr noundef %20, i64 noundef %27)
  store ptr %28, ptr %18, align 8
  %29 = load ptr, ptr %18, align 8
  %30 = call ptr @expand_filepath(ptr noundef %29, ptr noundef null)
  store ptr %30, ptr %17, align 8
  %31 = icmp ne ptr %30, null
  br i1 %31, label %32, label %61

32:                                               ; preds = %4
  %33 = load ptr, ptr %17, align 8
  %34 = load ptr, ptr %17, align 8
  %35 = call i64 @strlen(ptr noundef %34) #14
  store ptr getelementptr inbounds (%struct._zend_phar_globals, ptr @phar_globals, i32 0, i32 1), ptr %5, align 8
  store ptr %33, ptr %6, align 8
  store i64 %35, ptr %7, align 8
  %36 = load ptr, ptr %5, align 8
  %37 = load ptr, ptr %6, align 8
  %38 = load i64, ptr %7, align 8
  %39 = call ptr @zend_hash_str_find(ptr noundef %36, ptr noundef %37, i64 noundef %38) #13
  %40 = icmp ne ptr %39, null
  br i1 %40, label %41, label %44

41:                                               ; preds = %32
  %42 = load ptr, ptr %17, align 8
  call void @_efree(ptr noundef %42)
  %43 = load ptr, ptr %18, align 8
  call void @_efree(ptr noundef %43)
  store i32 0, ptr %11, align 4
  br label %158

44:                                               ; preds = %32
  %45 = load i32, ptr getelementptr inbounds (%struct._zend_phar_globals, ptr @phar_globals, i32 0, i32 7), align 8
  %46 = icmp ne i32 %45, 0
  br i1 %46, label %47, label %59

47:                                               ; preds = %44
  %48 = load ptr, ptr %17, align 8
  %49 = load ptr, ptr %17, align 8
  %50 = call i64 @strlen(ptr noundef %49) #14
  store ptr @cached_phars, ptr %8, align 8
  store ptr %48, ptr %9, align 8
  store i64 %50, ptr %10, align 8
  %51 = load ptr, ptr %8, align 8
  %52 = load ptr, ptr %9, align 8
  %53 = load i64, ptr %10, align 8
  %54 = call ptr @zend_hash_str_find(ptr noundef %51, ptr noundef %52, i64 noundef %53) #13
  %55 = icmp ne ptr %54, null
  br i1 %55, label %56, label %59

56:                                               ; preds = %47
  %57 = load ptr, ptr %17, align 8
  call void @_efree(ptr noundef %57)
  %58 = load ptr, ptr %18, align 8
  call void @_efree(ptr noundef %58)
  store i32 0, ptr %11, align 4
  br label %158

59:                                               ; preds = %47, %44
  %60 = load ptr, ptr %17, align 8
  call void @_efree(ptr noundef %60)
  br label %61

61:                                               ; preds = %59, %4
  %62 = load ptr, ptr %18, align 8
  %63 = call i32 @_php_stream_stat_path(ptr noundef %62, i32 noundef 0, ptr noundef %16, ptr noundef null)
  %64 = icmp eq i32 0, %63
  br i1 %64, label %65, label %78

65:                                               ; preds = %61
  %66 = load ptr, ptr %18, align 8
  call void @_efree(ptr noundef %66)
  %67 = getelementptr inbounds %struct._php_stream_statbuf, ptr %16, i32 0, i32 0
  %68 = getelementptr inbounds %struct.stat, ptr %67, i32 0, i32 3
  %69 = load i32, ptr %68, align 8
  %70 = and i32 %69, 16384
  %71 = icmp ne i32 %70, 0
  br i1 %71, label %72, label %73

72:                                               ; preds = %65
  store i32 -1, ptr %11, align 4
  br label %158

73:                                               ; preds = %65
  %74 = load i32, ptr %15, align 4
  %75 = icmp eq i32 %74, 1
  br i1 %75, label %76, label %77

76:                                               ; preds = %73
  store i32 -1, ptr %11, align 4
  br label %158

77:                                               ; preds = %73
  store i32 0, ptr %11, align 4
  br label %158

78:                                               ; preds = %61
  %79 = load i32, ptr %15, align 4
  %80 = icmp ne i32 %79, 0
  br i1 %80, label %83, label %81

81:                                               ; preds = %78
  %82 = load ptr, ptr %18, align 8
  call void @_efree(ptr noundef %82)
  store i32 -1, ptr %11, align 4
  br label %158

83:                                               ; preds = %78
  %84 = load ptr, ptr %18, align 8
  %85 = call ptr @strrchr(ptr noundef %84, i32 noundef 47) #14
  store ptr %85, ptr %19, align 8
  %86 = load ptr, ptr %19, align 8
  %87 = icmp ne ptr %86, null
  br i1 %87, label %88, label %90

88:                                               ; preds = %83
  %89 = load ptr, ptr %19, align 8
  store i8 0, ptr %89, align 1
  br label %90

90:                                               ; preds = %88, %83
  %91 = load ptr, ptr %18, align 8
  %92 = call i32 @_php_stream_stat_path(ptr noundef %91, i32 noundef 0, ptr noundef %16, ptr noundef null)
  %93 = icmp ne i32 0, %92
  br i1 %93, label %94, label %149

94:                                               ; preds = %90
  %95 = load ptr, ptr %19, align 8
  %96 = icmp ne ptr %95, null
  br i1 %96, label %147, label %97

97:                                               ; preds = %94
  %98 = load ptr, ptr %18, align 8
  %99 = call ptr @expand_filepath(ptr noundef %98, ptr noundef null)
  store ptr %99, ptr %17, align 8
  %100 = icmp ne ptr %99, null
  br i1 %100, label %103, label %101

101:                                              ; preds = %97
  %102 = load ptr, ptr %18, align 8
  call void @_efree(ptr noundef %102)
  store i32 -1, ptr %11, align 4
  br label %158

103:                                              ; preds = %97
  %104 = load ptr, ptr %17, align 8
  %105 = load ptr, ptr %18, align 8
  %106 = call ptr @strstr(ptr noundef %104, ptr noundef %105) #14
  store ptr %106, ptr %19, align 8
  %107 = load ptr, ptr %19, align 8
  %108 = icmp ne ptr %107, null
  br i1 %108, label %109, label %120

109:                                              ; preds = %103
  %110 = load ptr, ptr %13, align 8
  %111 = load ptr, ptr %12, align 8
  %112 = ptrtoint ptr %110 to i64
  %113 = ptrtoint ptr %111 to i64
  %114 = sub i64 %112, %113
  %115 = load i64, ptr %14, align 8
  %116 = add i64 %114, %115
  %117 = load ptr, ptr %19, align 8
  %118 = getelementptr inbounds i8, ptr %117, i64 %116
  store ptr %118, ptr %19, align 8
  %119 = load ptr, ptr %19, align 8
  store i8 0, ptr %119, align 1
  br label %120

120:                                              ; preds = %109, %103
  %121 = load ptr, ptr %17, align 8
  %122 = call ptr @strrchr(ptr noundef %121, i32 noundef 47) #14
  store ptr %122, ptr %19, align 8
  %123 = load ptr, ptr %19, align 8
  %124 = icmp ne ptr %123, null
  br i1 %124, label %125, label %127

125:                                              ; preds = %120
  %126 = load ptr, ptr %19, align 8
  store i8 0, ptr %126, align 1
  br label %130

127:                                              ; preds = %120
  %128 = load ptr, ptr %17, align 8
  call void @_efree(ptr noundef %128)
  %129 = load ptr, ptr %18, align 8
  call void @_efree(ptr noundef %129)
  store i32 -1, ptr %11, align 4
  br label %158

130:                                              ; preds = %125
  %131 = load ptr, ptr %17, align 8
  %132 = call i32 @_php_stream_stat_path(ptr noundef %131, i32 noundef 0, ptr noundef %16, ptr noundef null)
  %133 = icmp ne i32 0, %132
  br i1 %133, label %134, label %137

134:                                              ; preds = %130
  %135 = load ptr, ptr %17, align 8
  call void @_efree(ptr noundef %135)
  %136 = load ptr, ptr %18, align 8
  call void @_efree(ptr noundef %136)
  store i32 -1, ptr %11, align 4
  br label %158

137:                                              ; preds = %130
  %138 = load ptr, ptr %17, align 8
  call void @_efree(ptr noundef %138)
  %139 = getelementptr inbounds %struct._php_stream_statbuf, ptr %16, i32 0, i32 0
  %140 = getelementptr inbounds %struct.stat, ptr %139, i32 0, i32 3
  %141 = load i32, ptr %140, align 8
  %142 = and i32 %141, 16384
  %143 = icmp ne i32 %142, 0
  br i1 %143, label %144, label %146

144:                                              ; preds = %137
  %145 = load ptr, ptr %18, align 8
  call void @_efree(ptr noundef %145)
  store i32 0, ptr %11, align 4
  br label %158

146:                                              ; preds = %137
  br label %147

147:                                              ; preds = %146, %94
  %148 = load ptr, ptr %18, align 8
  call void @_efree(ptr noundef %148)
  store i32 -1, ptr %11, align 4
  br label %158

149:                                              ; preds = %90
  %150 = load ptr, ptr %18, align 8
  call void @_efree(ptr noundef %150)
  %151 = getelementptr inbounds %struct._php_stream_statbuf, ptr %16, i32 0, i32 0
  %152 = getelementptr inbounds %struct.stat, ptr %151, i32 0, i32 3
  %153 = load i32, ptr %152, align 8
  %154 = and i32 %153, 16384
  %155 = icmp ne i32 %154, 0
  br i1 %155, label %156, label %157

156:                                              ; preds = %149
  store i32 0, ptr %11, align 4
  br label %158

157:                                              ; preds = %149
  store i32 -1, ptr %11, align 4
  br label %158

158:                                              ; preds = %157, %156, %147, %144, %134, %127, %101, %81, %77, %76, %72, %56, %41
  %159 = load i32, ptr %11, align 4
  ret i32 %159
}