; Function Attrs: nounwind uwtable
define internal fastcc i32 @phar_analyze_path(ptr noundef %0, ptr noundef %1, i64 noundef %2, i32 noundef %3) unnamed_addr #0 {
  %5 = alloca %struct._php_stream_statbuf, align 8
  %6 = ptrtoint ptr %1 to i64
  %7 = ptrtoint ptr %0 to i64
  %8 = sub i64 %6, %7
  %9 = add i64 %8, %2
  %10 = tail call noalias ptr @_estrndup(ptr noundef %0, i64 noundef %9) #23
  %11 = tail call ptr @expand_filepath(ptr noundef %10, ptr noundef null) #23
  %.not = icmp eq ptr %11, null
  br i1 %.not, label %23, label %12

12:                                               ; preds = %4
  %13 = tail call i64 @strlen(ptr noundef nonnull dereferenceable(1) %11) #24
  %14 = tail call ptr @zend_hash_str_find(ptr noundef nonnull getelementptr inbounds (%struct._zend_phar_globals, ptr @phar_globals, i64 0, i32 1), ptr noundef nonnull %11, i64 noundef %13) #23
  %.not57 = icmp eq ptr %14, null
  br i1 %.not57, label %16, label %15

15:                                               ; preds = %12
  tail call void @_efree(ptr noundef nonnull %11) #23
  tail call void @_efree(ptr noundef %10) #23
  br label %62

16:                                               ; preds = %12
  %17 = load i32, ptr getelementptr inbounds (%struct._zend_phar_globals, ptr @phar_globals, i64 0, i32 7), align 8
  %.not58 = icmp eq i32 %17, 0
  br i1 %.not58, label %22, label %18

18:                                               ; preds = %16
  %19 = tail call i64 @strlen(ptr noundef nonnull dereferenceable(1) %11) #24
  %20 = tail call ptr @zend_hash_str_find(ptr noundef nonnull @cached_phars, ptr noundef nonnull %11, i64 noundef %19) #23
  %.not59 = icmp eq ptr %20, null
  br i1 %.not59, label %22, label %21

21:                                               ; preds = %18
  tail call void @_efree(ptr noundef nonnull %11) #23
  tail call void @_efree(ptr noundef %10) #23
  br label %62

22:                                               ; preds = %18, %16
  tail call void @_efree(ptr noundef nonnull %11) #23
  br label %23

23:                                               ; preds = %22, %4
  %24 = call i32 @_php_stream_stat_path(ptr noundef %10, i32 noundef 0, ptr noundef nonnull %5, ptr noundef null) #23
  %25 = icmp eq i32 %24, 0
  br i1 %25, label %26, label %32

26:                                               ; preds = %23
  call void @_efree(ptr noundef %10) #23
  %27 = getelementptr inbounds i8, ptr %5, i64 24
  %28 = load i32, ptr %27, align 8
  %29 = and i32 %28, 16384
  %.not69 = icmp eq i32 %29, 0
  br i1 %.not69, label %30, label %62

30:                                               ; preds = %26
  %31 = icmp eq i32 %3, 1
  %. = sext i1 %31 to i32
  br label %62

32:                                               ; preds = %23
  %.not60 = icmp eq i32 %3, 0
  br i1 %.not60, label %33, label %34

33:                                               ; preds = %32
  call void @_efree(ptr noundef %10) #23
  br label %62

34:                                               ; preds = %32
  %35 = call ptr @strrchr(ptr noundef nonnull dereferenceable(1) %10, i32 noundef 47) #24
  %.not61 = icmp eq ptr %35, null
  br i1 %.not61, label %36, label %.thread

36:                                               ; preds = %34
  %37 = call i32 @_php_stream_stat_path(ptr noundef %10, i32 noundef 0, ptr noundef nonnull %5, ptr noundef null) #23
  %.not62 = icmp eq i32 %37, 0
  br i1 %.not62, label %57, label %39

.thread:                                          ; preds = %34
  store i8 0, ptr %35, align 1
  %38 = call i32 @_php_stream_stat_path(ptr noundef %10, i32 noundef 0, ptr noundef nonnull %5, ptr noundef null) #23
  %.not6271 = icmp eq i32 %38, 0
  br i1 %.not6271, label %57, label %.thread72

39:                                               ; preds = %36
  %40 = call ptr @expand_filepath(ptr noundef %10, ptr noundef null) #23
  %.not64 = icmp eq ptr %40, null
  br i1 %.not64, label %41, label %42

41:                                               ; preds = %39
  call void @_efree(ptr noundef %10) #23
  br label %62

42:                                               ; preds = %39
  %43 = call ptr @strstr(ptr noundef nonnull dereferenceable(1) %40, ptr noundef nonnull dereferenceable(1) %10) #24
  %.not65 = icmp eq ptr %43, null
  br i1 %.not65, label %46, label %44

44:                                               ; preds = %42
  %45 = getelementptr inbounds i8, ptr %43, i64 %9
  store i8 0, ptr %45, align 1
  br label %46

46:                                               ; preds = %44, %42
  %47 = call ptr @strrchr(ptr noundef nonnull dereferenceable(1) %40, i32 noundef 47) #24
  %.not66 = icmp eq ptr %47, null
  br i1 %.not66, label %50, label %48

48:                                               ; preds = %46
  store i8 0, ptr %47, align 1
  %49 = call i32 @_php_stream_stat_path(ptr noundef nonnull %40, i32 noundef 0, ptr noundef nonnull %5, ptr noundef null) #23
  %.not67 = icmp eq i32 %49, 0
  call void @_efree(ptr noundef nonnull %40) #23
  br i1 %.not67, label %52, label %51

50:                                               ; preds = %46
  call void @_efree(ptr noundef nonnull %40) #23
  call void @_efree(ptr noundef %10) #23
  br label %62

51:                                               ; preds = %48
  call void @_efree(ptr noundef %10) #23
  br label %62

52:                                               ; preds = %48
  %53 = getelementptr inbounds i8, ptr %5, i64 24
  %54 = load i32, ptr %53, align 8
  %55 = and i32 %54, 16384
  %.not68 = icmp eq i32 %55, 0
  br i1 %.not68, label %.thread72, label %56

56:                                               ; preds = %52
  call void @_efree(ptr noundef %10) #23
  br label %62

.thread72:                                        ; preds = %.thread, %52
  call void @_efree(ptr noundef %10) #23
  br label %62

57:                                               ; preds = %.thread, %36
  call void @_efree(ptr noundef %10) #23
  %58 = getelementptr inbounds i8, ptr %5, i64 24
  %59 = load i32, ptr %58, align 8
  %60 = lshr i32 %59, 14
  %61 = and i32 %60, 1
  %sext = add nsw i32 %61, -1
  br label %62

62:                                               ; preds = %57, %30, %26, %.thread72, %56, %51, %50, %41, %33, %21, %15
  %.0 = phi i32 [ 0, %15 ], [ 0, %21 ], [ -1, %.thread72 ], [ -1, %51 ], [ 0, %56 ], [ -1, %50 ], [ -1, %41 ], [ -1, %33 ], [ -1, %26 ], [ %., %30 ], [ %sext, %57 ]
  ret i32 %.0
}